(itaxonomy
Taxonomy
p0
(dp1
S'itemList'
p2
(lp3
(itaxonomy
Taxonomy
p4
(dp5
g2
(lp6
(itaxonomy
Taxonomy
p7
(dp8
g2
(lp9
S'White'
p10
aS'Brown'
p11
asS'categoryName'
p12
S'Cocker'
p13
sS'level'
p14
S'Genus'
p15
sba(itaxonomy
Taxonomy
p16
(dp17
g2
(lp18
S'White'
p19
asg12
S'Other'
p20
sg14
S'Genus'
p21
sbasg12
S'Spaniels'
p22
sg14
S'Family'
p23
sba(itaxonomy
Taxonomy
p24
(dp25
g2
(lp26
(itaxonomy
Taxonomy
p27
(dp28
g2
(lp29
S'White'
p30
asg12
S'Irish'
p31
sg14
S'Genus'
p32
sbasg12
S'Terriers'
p33
sg14
S'Family'
p34
sbasg12
S'Dogs'
p35
sg14
S'Order'
p36
sb.